target datalayout = "e-m:e-p270:32:32-p271:32:32-p272:64:64-i64:64-i128:128-f80:128-n8:16:32:64-S128"
target triple = "x86_64-unknown-linux-gnu"

%"class.v8::Local.19" = type { %"class.v8::LocalBase.20" }
%"class.v8::LocalBase.20" = type { %"class.v8::IndirectHandleBase" }
%"class.v8::IndirectHandleBase" = type { ptr }
%"class.v8::Local" = type { %"class.v8::LocalBase" }
%"class.v8::LocalBase" = type { %"class.v8::IndirectHandleBase" }
%"class.v8::MaybeLocal" = type { %"class.v8::Local" }
%"class.v8::MaybeLocal.18" = type { %"class.v8::Local.19" }

; Function Attrs: mustprogress nounwind uwtable
define dso_local ptr @_ZN4node6crypto18GetSSLOCSPResponseEPNS_11EnvironmentEP6ssl_stN2v85LocalINS5_5ValueEEE(ptr noundef %env, ptr noundef %ssl, ptr %default_value.coerce) #4 {
entry:
  %this.addr.i46 = alloca ptr, align 8
  %other.addr.i = alloca ptr, align 8
  %this.addr.i.i42 = alloca ptr, align 8
  %this.addr.i43 = alloca ptr, align 8
  %this.addr.i40 = alloca ptr, align 8
  %this.addr.i38 = alloca ptr, align 8
  %this.addr.i36 = alloca ptr, align 8
  %this.addr.i34 = alloca ptr, align 8
  %that.i31 = alloca %"class.v8::Local.19", align 8
  %this.addr.i32 = alloca ptr, align 8
  %this.addr.i.i = alloca ptr, align 8
  %this.addr.i29 = alloca ptr, align 8
  %this.addr.i27 = alloca ptr, align 8
  %out.addr.i = alloca ptr, align 8
  %ref.tmp.i = alloca %"class.v8::Local", align 8
  %agg.tmp.i = alloca %"class.v8::Local.19", align 8
  %this.addr.i26 = alloca ptr, align 8
  %that.i23 = alloca %"class.v8::Local", align 8
  %this.addr.i24 = alloca ptr, align 8
  %that.i = alloca %"class.v8::Local", align 8
  %this.addr.i = alloca ptr, align 8
  %retval = alloca %"class.v8::MaybeLocal", align 8
  %default_value = alloca %"class.v8::Local", align 8
  %env.addr = alloca ptr, align 8
  %ssl.addr = alloca ptr, align 8
  %resp = alloca ptr, align 8
  %len = alloca i32, align 4
  %agg.tmp = alloca %"class.v8::Local", align 8
  %ret = alloca %"class.v8::Local", align 8
  %maybe_buffer = alloca %"class.v8::MaybeLocal.18", align 8
  %agg.tmp15 = alloca %"class.v8::Local", align 8
  %coerce.dive = getelementptr inbounds %"class.v8::Local", ptr %default_value, i32 0, i32 0
  %coerce.dive1 = getelementptr inbounds %"class.v8::LocalBase", ptr %coerce.dive, i32 0, i32 0
  %coerce.dive2 = getelementptr inbounds %"class.v8::IndirectHandleBase", ptr %coerce.dive1, i32 0, i32 0
  store ptr %default_value.coerce, ptr %coerce.dive2, align 8
  store ptr %env, ptr %env.addr, align 8
  store ptr %ssl, ptr %ssl.addr, align 8
  %0 = load ptr, ptr %ssl.addr, align 8
  %call = call i64 @SSL_ctrl(ptr noundef %0, i32 noundef 70, i64 noundef 0, ptr noundef %resp)
  %conv = trunc i64 %call to i32
  store i32 %conv, ptr %len, align 4
  %1 = load ptr, ptr %resp, align 8
  %cmp = icmp eq ptr %1, null
  br i1 %cmp, label %if.then, label %if.end

if.then:                                          ; preds = %entry
  call void @llvm.memcpy.p0.p0.i64(ptr align 8 %agg.tmp, ptr align 8 %default_value, i64 8, i1 false)
  %coerce.dive3 = getelementptr inbounds %"class.v8::Local", ptr %agg.tmp, i32 0, i32 0
  %coerce.dive4 = getelementptr inbounds %"class.v8::LocalBase", ptr %coerce.dive3, i32 0, i32 0
  %coerce.dive5 = getelementptr inbounds %"class.v8::IndirectHandleBase", ptr %coerce.dive4, i32 0, i32 0
  %2 = load ptr, ptr %coerce.dive5, align 8
  store ptr %2, ptr %that.i, align 8
  store ptr %retval, ptr %this.addr.i, align 8
  %this3.i = load ptr, ptr %this.addr.i, align 8
  call void @llvm.memcpy.p0.p0.i64(ptr align 8 %this3.i, ptr align 8 %that.i, i64 8, i1 false)
  br label %return

if.end:                                           ; preds = %entry
  store ptr %ret, ptr %this.addr.i26, align 8
  %this1.i = load ptr, ptr %this.addr.i26, align 8
  store ptr %this1.i, ptr %this.addr.i36, align 8
  %this1.i37 = load ptr, ptr %this.addr.i36, align 8
  store ptr %this1.i37, ptr %this.addr.i38, align 8
  %this1.i39 = load ptr, ptr %this.addr.i38, align 8
  store ptr null, ptr %this1.i39, align 8
  %3 = load ptr, ptr %env.addr, align 8
  %4 = load ptr, ptr %resp, align 8
  %5 = load i32, ptr %len, align 4
  %conv6 = sext i32 %5 to i64
  %call7 = call ptr @_ZN4node6Buffer4CopyEPNS_11EnvironmentEPKcm(ptr noundef %3, ptr noundef %4, i64 noundef %conv6)
  %coerce.dive8 = getelementptr inbounds %"class.v8::MaybeLocal.18", ptr %maybe_buffer, i32 0, i32 0
  %coerce.dive9 = getelementptr inbounds %"class.v8::Local.19", ptr %coerce.dive8, i32 0, i32 0
  %coerce.dive10 = getelementptr inbounds %"class.v8::LocalBase.20", ptr %coerce.dive9, i32 0, i32 0
  %coerce.dive11 = getelementptr inbounds %"class.v8::IndirectHandleBase", ptr %coerce.dive10, i32 0, i32 0
  store ptr %call7, ptr %coerce.dive11, align 8
  store ptr %maybe_buffer, ptr %this.addr.i27, align 8
  store ptr %ret, ptr %out.addr.i, align 8
  %this1.i28 = load ptr, ptr %this.addr.i27, align 8
  call void @llvm.memcpy.p0.p0.i64(ptr align 8 %agg.tmp.i, ptr align 8 %this1.i28, i64 8, i1 false)
  %6 = load ptr, ptr %agg.tmp.i, align 8
  store ptr %6, ptr %that.i31, align 8
  store ptr %ref.tmp.i, ptr %this.addr.i32, align 8
  %this3.i33 = load ptr, ptr %this.addr.i32, align 8
  store ptr %this3.i33, ptr %this.addr.i46, align 8
  store ptr %that.i31, ptr %other.addr.i, align 8
  %this1.i47 = load ptr, ptr %this.addr.i46, align 8
  %7 = load ptr, ptr %other.addr.i, align 8
  call void @llvm.memcpy.p0.p0.i64(ptr align 8 %this1.i47, ptr align 8 %7, i64 8, i1 false)
  %8 = load ptr, ptr %out.addr.i, align 8
  call void @llvm.memcpy.p0.p0.i64(ptr align 8 %8, ptr align 8 %ref.tmp.i, i64 8, i1 false)
  store ptr %this1.i28, ptr %this.addr.i43, align 8
  %this1.i44 = load ptr, ptr %this.addr.i43, align 8
  store ptr %this1.i44, ptr %this.addr.i.i42, align 8
  %this1.i.i45 = load ptr, ptr %this.addr.i.i42, align 8
  %9 = load ptr, ptr %this1.i.i45, align 8
  %cmp.i.i = icmp eq ptr %9, null
  %lnot.i = xor i1 %cmp.i.i, true
  br i1 %lnot.i, label %if.end14, label %if.then13

if.then13:                                        ; preds = %if.end
  store ptr %retval, ptr %this.addr.i29, align 8
  %this1.i30 = load ptr, ptr %this.addr.i29, align 8
  call void @llvm.memset.p0.i64(ptr align 8 %this1.i30, i8 0, i64 8, i1 false)
  store ptr %this1.i30, ptr %this.addr.i.i, align 8
  %this1.i.i = load ptr, ptr %this.addr.i.i, align 8
  store ptr %this1.i.i, ptr %this.addr.i34, align 8
  %this1.i35 = load ptr, ptr %this.addr.i34, align 8
  store ptr %this1.i35, ptr %this.addr.i40, align 8
  %this1.i41 = load ptr, ptr %this.addr.i40, align 8
  store ptr null, ptr %this1.i41, align 8
  br label %return

if.end14:                                         ; preds = %if.end
  call void @llvm.memcpy.p0.p0.i64(ptr align 8 %agg.tmp15, ptr align 8 %ret, i64 8, i1 false)
  %coerce.dive16 = getelementptr inbounds %"class.v8::Local", ptr %agg.tmp15, i32 0, i32 0
  %coerce.dive17 = getelementptr inbounds %"class.v8::LocalBase", ptr %coerce.dive16, i32 0, i32 0
  %coerce.dive18 = getelementptr inbounds %"class.v8::IndirectHandleBase", ptr %coerce.dive17, i32 0, i32 0
  %10 = load ptr, ptr %coerce.dive18, align 8
  store ptr %10, ptr %that.i23, align 8
  store ptr %retval, ptr %this.addr.i24, align 8
  %this3.i25 = load ptr, ptr %this.addr.i24, align 8
  call void @llvm.memcpy.p0.p0.i64(ptr align 8 %this3.i25, ptr align 8 %that.i23, i64 8, i1 false)
  br label %return

return:                                           ; preds = %if.end14, %if.then13, %if.then
  %coerce.dive19 = getelementptr inbounds %"class.v8::MaybeLocal", ptr %retval, i32 0, i32 0
  %coerce.dive20 = getelementptr inbounds %"class.v8::Local", ptr %coerce.dive19, i32 0, i32 0
  %coerce.dive21 = getelementptr inbounds %"class.v8::LocalBase", ptr %coerce.dive20, i32 0, i32 0
  %coerce.dive22 = getelementptr inbounds %"class.v8::IndirectHandleBase", ptr %coerce.dive21, i32 0, i32 0
  %11 = load ptr, ptr %coerce.dive22, align 8
  ret ptr %11
}