; Function Attrs: mustprogress nounwind uwtable
define dso_local ptr @_ZN4node6crypto18GetSSLOCSPResponseEPNS_11EnvironmentEP6ssl_stN2v85LocalINS5_5ValueEEE(ptr noundef %env, ptr noundef %ssl, ptr readnone %default_value.coerce) local_unnamed_addr #3 {
entry:
  %resp = alloca ptr, align 8
  %call = call i64 @SSL_ctrl(ptr noundef %ssl, i32 noundef 70, i64 noundef 0, ptr noundef nonnull %resp) #17
  %0 = load ptr, ptr %resp, align 8
  %cmp = icmp eq ptr %0, null
  br i1 %cmp, label %return, label %if.end

if.end:                                           ; preds = %entry
  %sext = shl i64 %call, 32
  %conv6 = ashr exact i64 %sext, 32
  %call7 = call ptr @_ZN4node6Buffer4CopyEPNS_11EnvironmentEPKcm(ptr noundef %env, ptr noundef nonnull %0, i64 noundef %conv6) #17
  br label %return

return:                                           ; preds = %if.end, %entry
  %retval.sroa.0.0 = phi ptr [ %default_value.coerce, %entry ], [ %call7, %if.end ]
  ret ptr %retval.sroa.0.0
}